; Function Attrs: nounwind uwtable
define dso_local void @ECPGmake_struct_member(ptr noundef %0, ptr noundef %1, ptr noundef captures(none) %2) local_unnamed_addr #0 {
  %4 = tail call ptr @mm_alloc(i64 noundef 24) #7
  %5 = tail call ptr @mm_strdup(ptr noundef %0) #7
  store ptr %5, ptr %4, align 8
  %6 = getelementptr inbounds nuw i8, ptr %4, i64 8
  store ptr %1, ptr %6, align 8
  %7 = getelementptr inbounds nuw i8, ptr %4, i64 16
  store ptr null, ptr %7, align 8
  %8 = load ptr, ptr %2, align 8
  br label %9

9:                                                ; preds = %10, %3
  %.0 = phi ptr [ %8, %3 ], [ %12, %10 ]
  %.not = icmp eq ptr %.0, null
  br i1 %.not, label %.critedge16, label %10

10:                                               ; preds = %9
  %11 = getelementptr inbounds nuw i8, ptr %.0, i64 16
  %12 = load ptr, ptr %11, align 8
  %.not15 = icmp eq ptr %12, null
  br i1 %.not15, label %.critedge, label %9, !llvm.loop !4

.critedge:                                        ; preds = %10
  %13 = getelementptr inbounds nuw i8, ptr %.0, i64 16
  store ptr %4, ptr %13, align 8
  br label %14

.critedge16:                                      ; preds = %9
  store ptr %4, ptr %2, align 8
  br label %14

14:                                               ; preds = %.critedge16, %.critedge
  ret void
}